; Function Attrs: nofree norecurse nosync nounwind memory(read, inaccessiblemem: none) uwtable
define dso_local i32 @RelationMapFilenumberToOid(i32 noundef %0, i1 noundef zeroext %1) local_unnamed_addr #0 {
  br i1 %1, label %.preheader34, label %.preheader37

.preheader37:                                     ; preds = %2
  %3 = load i32, ptr getelementptr inbounds nuw (i8, ptr @active_local_updates, i64 4), align 4
  %4 = icmp sgt i32 %3, 0
  br i1 %4, label %.lr.ph.preheader, label %.preheader35

.lr.ph.preheader:                                 ; preds = %.preheader37
  %wide.trip.count = zext nneg i32 %3 to i64
  br label %.lr.ph

.preheader34:                                     ; preds = %2
  %5 = load i32, ptr getelementptr inbounds nuw (i8, ptr @active_shared_updates, i64 4), align 4
  %6 = icmp sgt i32 %5, 0
  br i1 %6, label %.lr.ph45.preheader, label %.preheader

.lr.ph45.preheader:                               ; preds = %.preheader34
  %wide.trip.count65 = zext nneg i32 %5 to i64
  br label %.lr.ph45

7:                                                ; preds = %.lr.ph45
  %indvars.iv.next63 = add nuw nsw i64 %indvars.iv62, 1
  %exitcond66.not = icmp eq i64 %indvars.iv.next63, %wide.trip.count65
  br i1 %exitcond66.not, label %.preheader, label %.lr.ph45, !llvm.loop !9

.preheader:                                       ; preds = %7, %.preheader34
  %8 = load i32, ptr getelementptr inbounds nuw (i8, ptr @shared_map, i64 4), align 4
  %9 = icmp sgt i32 %8, 0
  br i1 %9, label %.lr.ph47.preheader, label %.loopexit

.lr.ph47.preheader:                               ; preds = %.preheader
  %wide.trip.count70 = zext nneg i32 %8 to i64
  br label %.lr.ph47

.lr.ph45:                                         ; preds = %.lr.ph45.preheader, %7
  %indvars.iv62 = phi i64 [ 0, %.lr.ph45.preheader ], [ %indvars.iv.next63, %7 ]
  %10 = getelementptr inbounds nuw [64 x %struct.RelMapping], ptr getelementptr inbounds nuw (i8, ptr @active_shared_updates, i64 8), i64 0, i64 %indvars.iv62
  %11 = getelementptr inbounds nuw i8, ptr %10, i64 4
  %12 = load i32, ptr %11, align 4
  %13 = icmp eq i32 %0, %12
  br i1 %13, label %.loopexit.sink.split, label %7

14:                                               ; preds = %.lr.ph47
  %indvars.iv.next68 = add nuw nsw i64 %indvars.iv67, 1
  %exitcond71.not = icmp eq i64 %indvars.iv.next68, %wide.trip.count70
  br i1 %exitcond71.not, label %.loopexit, label %.lr.ph47, !llvm.loop !10

.lr.ph47:                                         ; preds = %.lr.ph47.preheader, %14
  %indvars.iv67 = phi i64 [ 0, %.lr.ph47.preheader ], [ %indvars.iv.next68, %14 ]
  %15 = getelementptr inbounds nuw [64 x %struct.RelMapping], ptr getelementptr inbounds nuw (i8, ptr @shared_map, i64 8), i64 0, i64 %indvars.iv67
  %16 = getelementptr inbounds nuw i8, ptr %15, i64 4
  %17 = load i32, ptr %16, align 4
  %18 = icmp eq i32 %0, %17
  br i1 %18, label %.loopexit.sink.split, label %14

19:                                               ; preds = %.lr.ph
  %indvars.iv.next = add nuw nsw i64 %indvars.iv, 1
  %exitcond.not = icmp eq i64 %indvars.iv.next, %wide.trip.count
  br i1 %exitcond.not, label %.preheader35, label %.lr.ph, !llvm.loop !11

.preheader35:                                     ; preds = %19, %.preheader37
  %20 = load i32, ptr getelementptr inbounds nuw (i8, ptr @local_map, i64 4), align 4
  %21 = icmp sgt i32 %20, 0
  br i1 %21, label %.lr.ph43.preheader, label %.loopexit

.lr.ph43.preheader:                               ; preds = %.preheader35
  %wide.trip.count60 = zext nneg i32 %20 to i64
  br label %.lr.ph43

.lr.ph:                                           ; preds = %.lr.ph.preheader, %19
  %indvars.iv = phi i64 [ 0, %.lr.ph.preheader ], [ %indvars.iv.next, %19 ]
  %22 = getelementptr inbounds nuw [64 x %struct.RelMapping], ptr getelementptr inbounds nuw (i8, ptr @active_local_updates, i64 8), i64 0, i64 %indvars.iv
  %23 = getelementptr inbounds nuw i8, ptr %22, i64 4
  %24 = load i32, ptr %23, align 4
  %25 = icmp eq i32 %0, %24
  br i1 %25, label %.loopexit.sink.split, label %19

26:                                               ; preds = %.lr.ph43
  %indvars.iv.next58 = add nuw nsw i64 %indvars.iv57, 1
  %exitcond61.not = icmp eq i64 %indvars.iv.next58, %wide.trip.count60
  br i1 %exitcond61.not, label %.loopexit, label %.lr.ph43, !llvm.loop !12

.lr.ph43:                                         ; preds = %.lr.ph43.preheader, %26
  %indvars.iv57 = phi i64 [ 0, %.lr.ph43.preheader ], [ %indvars.iv.next58, %26 ]
  %27 = getelementptr inbounds nuw [64 x %struct.RelMapping], ptr getelementptr inbounds nuw (i8, ptr @local_map, i64 8), i64 0, i64 %indvars.iv57
  %28 = getelementptr inbounds nuw i8, ptr %27, i64 4
  %29 = load i32, ptr %28, align 4
  %30 = icmp eq i32 %0, %29
  br i1 %30, label %.loopexit.sink.split, label %26

.loopexit.sink.split:                             ; preds = %.lr.ph, %.lr.ph43, %.lr.ph45, %.lr.ph47
  %.lcssa76.sink = phi ptr [ %15, %.lr.ph47 ], [ %10, %.lr.ph45 ], [ %27, %.lr.ph43 ], [ %22, %.lr.ph ]
  %31 = load i32, ptr %.lcssa76.sink, align 4
  br label %.loopexit

.loopexit:                                        ; preds = %26, %14, %.loopexit.sink.split, %.preheader35, %.preheader
  %.033 = phi i32 [ 0, %.preheader ], [ 0, %.preheader35 ], [ %31, %.loopexit.sink.split ], [ 0, %14 ], [ 0, %26 ]
  ret i32 %.033
}